; Function Attrs: mustprogress uwtable
define internal noundef zeroext i1 @_ZNK32pxrInternal_v0_24__pxrReserved__8TfNotice18_StandardDelivererINS0_10_DelivererINS_9TfWeakPtrIZL18_TestSdfFpsAndTcpsvE15_ChangeListenerEENS3_INS_8SdfLayerEEEMS4_FvRKNS_9SdfNotice18LayerInfoDidChangeEES9_EEE8DeliversERKNS_6TfTypeEPKNS_10TfWeakBaseE(ptr noundef nonnull align 8 dereferenceable(34) %0, ptr noundef nonnull align 8 dereferenceable(8) %1, ptr noundef readnone %2) unnamed_addr #5 align 2 {
  %4 = alloca %"class.pxrInternal_v0_24__pxrReserved__::TfCallContext", align 8
  %5 = load ptr, ptr %0, align 8
  %6 = getelementptr inbounds i8, ptr %5, i64 24
  %7 = load ptr, ptr %6, align 8
  %8 = tail call ptr %7(ptr noundef nonnull align 8 dereferenceable(34) %0)
  %9 = tail call noundef zeroext i1 @_ZNK32pxrInternal_v0_24__pxrReserved__6TfType3IsAES0_(ptr noundef nonnull align 8 dereferenceable(8) %1, ptr %8)
  br i1 %9, label %10, label %27

10:                                               ; preds = %3
  %11 = getelementptr inbounds nuw i8, ptr %0, i64 56
  %12 = getelementptr inbounds i8, ptr %0, i64 64
  %13 = load ptr, ptr %12, align 8
  %.not.i.i.i.i = icmp eq ptr %13, null
  br i1 %.not.i.i.i.i, label %_ZNK32pxrInternal_v0_24__pxrReserved__15TfWeakPtrFacadeINS_9TfWeakPtrENS_8SdfLayerEE9IsInvalidEv.exit, label %_ZNK32pxrInternal_v0_24__pxrReserved__15TfWeakPtrFacadeINS_9TfWeakPtrENS_8SdfLayerEE9IsInvalidEv.exit.thread

_ZNK32pxrInternal_v0_24__pxrReserved__15TfWeakPtrFacadeINS_9TfWeakPtrENS_8SdfLayerEE9IsInvalidEv.exit: ; preds = %10
  %14 = icmp eq ptr %2, null
  br i1 %14, label %27, label %19

_ZNK32pxrInternal_v0_24__pxrReserved__15TfWeakPtrFacadeINS_9TfWeakPtrENS_8SdfLayerEE9IsInvalidEv.exit.thread: ; preds = %10
  %15 = getelementptr inbounds nuw i8, ptr %13, i64 14
  %16 = load i8, ptr %15, align 2
  %17 = trunc i8 %16 to i1
  %18 = icmp ne ptr %2, null
  %or.cond.not8.not = and i1 %18, %17
  br i1 %or.cond.not8.not, label %_ZNK32pxrInternal_v0_24__pxrReserved__8TfRefPtrINS_10Tf_RemnantEEptEv.exit.i.i.i.i.i, label %27

19:                                               ; preds = %_ZNK32pxrInternal_v0_24__pxrReserved__15TfWeakPtrFacadeINS_9TfWeakPtrENS_8SdfLayerEE9IsInvalidEv.exit
  call void @llvm.lifetime.start.p0(i64 40, ptr nonnull %4)
  br label %_ZNK32pxrInternal_v0_24__pxrReserved__15TfWeakPtrFacadeINS_9TfWeakPtrENS_8SdfLayerEE13_FetchPointerEv.exit.thread.i.i

_ZNK32pxrInternal_v0_24__pxrReserved__8TfRefPtrINS_10Tf_RemnantEEptEv.exit.i.i.i.i.i: ; preds = %_ZNK32pxrInternal_v0_24__pxrReserved__15TfWeakPtrFacadeINS_9TfWeakPtrENS_8SdfLayerEE9IsInvalidEv.exit.thread
  call void @llvm.lifetime.start.p0(i64 40, ptr nonnull %4)
  %20 = load ptr, ptr %11, align 8
  %.not.i.i.not = icmp eq ptr %20, null
  br i1 %.not.i.i.not, label %_ZNK32pxrInternal_v0_24__pxrReserved__15TfWeakPtrFacadeINS_9TfWeakPtrENS_8SdfLayerEE13_FetchPointerEv.exit.thread.i.i, label %_ZNK32pxrInternal_v0_24__pxrReserved__15TfWeakPtrFacadeINS_9TfWeakPtrENS_8SdfLayerEE11GetWeakBaseEv.exit

_ZNK32pxrInternal_v0_24__pxrReserved__15TfWeakPtrFacadeINS_9TfWeakPtrENS_8SdfLayerEE13_FetchPointerEv.exit.thread.i.i: ; preds = %19, %_ZNK32pxrInternal_v0_24__pxrReserved__8TfRefPtrINS_10Tf_RemnantEEptEv.exit.i.i.i.i.i
  store ptr @.str.39, ptr %4, align 8
  %21 = getelementptr inbounds nuw i8, ptr %4, i64 8
  store ptr @__func__._ZNK32pxrInternal_v0_24__pxrReserved__8TfRefPtrINS_8SdfLayerEEptEv, ptr %21, align 8
  %22 = getelementptr inbounds nuw i8, ptr %4, i64 16
  store i64 198, ptr %22, align 8
  %23 = getelementptr inbounds nuw i8, ptr %4, i64 24
  store ptr @__PRETTY_FUNCTION__._ZNK32pxrInternal_v0_24__pxrReserved__15TfWeakPtrFacadeINS_9TfWeakPtrENS_8SdfLayerEEptEv, ptr %23, align 8
  %24 = getelementptr inbounds nuw i8, ptr %4, i64 32
  store i8 0, ptr %24, align 8
  call void @_ZN32pxrInternal_v0_24__pxrReserved__40Tf_PostNullSmartPtrDereferenceFatalErrorERKNS_13TfCallContextEPKc(ptr noundef nonnull align 8 dereferenceable(33) %4, ptr noundef nonnull @_ZTSN32pxrInternal_v0_24__pxrReserved__9TfWeakPtrINS_8SdfLayerEEE) #27
  unreachable

_ZNK32pxrInternal_v0_24__pxrReserved__15TfWeakPtrFacadeINS_9TfWeakPtrENS_8SdfLayerEE11GetWeakBaseEv.exit: ; preds = %_ZNK32pxrInternal_v0_24__pxrReserved__8TfRefPtrINS_10Tf_RemnantEEptEv.exit.i.i.i.i.i
  call void @llvm.lifetime.end.p0(i64 40, ptr nonnull %4)
  %25 = getelementptr inbounds i8, ptr %20, i64 16
  %26 = icmp eq ptr %25, %2
  br label %27

27:                                               ; preds = %_ZNK32pxrInternal_v0_24__pxrReserved__15TfWeakPtrFacadeINS_9TfWeakPtrENS_8SdfLayerEE9IsInvalidEv.exit.thread, %_ZNK32pxrInternal_v0_24__pxrReserved__15TfWeakPtrFacadeINS_9TfWeakPtrENS_8SdfLayerEE11GetWeakBaseEv.exit, %_ZNK32pxrInternal_v0_24__pxrReserved__15TfWeakPtrFacadeINS_9TfWeakPtrENS_8SdfLayerEE9IsInvalidEv.exit, %3
  %28 = phi i1 [ false, %_ZNK32pxrInternal_v0_24__pxrReserved__15TfWeakPtrFacadeINS_9TfWeakPtrENS_8SdfLayerEE9IsInvalidEv.exit ], [ false, %3 ], [ %26, %_ZNK32pxrInternal_v0_24__pxrReserved__15TfWeakPtrFacadeINS_9TfWeakPtrENS_8SdfLayerEE11GetWeakBaseEv.exit ], [ false, %_ZNK32pxrInternal_v0_24__pxrReserved__15TfWeakPtrFacadeINS_9TfWeakPtrENS_8SdfLayerEE9IsInvalidEv.exit.thread ]
  ret i1 %28
}